-----BEGIN ENCRYPTED PRIVATE KEY-----
MIIFHDBOBgkqhkiG9w0BBQ0wQTApBgkqhkiG9w0BBQwwHAQILuHFApjk7tQCAggA
MAwGCCqGSIb3DQIJBQAwFAYIKoZIhvcNAwcECCTh7X6QxvSQBIIEyC7o6sHdFoZ5
pVGkDs6fBHzLiA9fLXq7TNF+mWoprt2dm5Tq/TNPU6JsSywKOVYR/YfhBuX9WuhS
6B6A+aE7GevmygLhWNEamHH17QBbo2WO/Ua6TZnt5SdFTvPUTXivtl6N+YLRJ03H
ITIrhYh0/KojWHFCx0tfcrurGOuwcyNmm6gbHZagTDj2DmQvYsHgVtAzhg9U88xT
km0HsnbDsG9Gpa1K9/rqUiy66UpbhH5qF9z+P4i0WIOuDeFjMTarhVzAm3EyThME
OaCNMlOHCdJPdAgClCT77qHCHPXDCqWJxt0cTpCASirmCtzSX8ASa2EVE0IwNcBA
oQkJicUZS9CohXSHdgrHWthyP+d9IX+qdAjCaT3N6FS+ZW9uEiktP2TEMQDUwUhG
kLYzasmCcQZYn2rqYJCOUFdwUb5tcoTL4YxauvKxtoApHcd/faqdSJhfu8eTqAgC
g5RTbgC+1LBbpiMctSIDHDHzIq+HM2ZKT35Nm85J+MAiUt0Bq3HlpfMHLh2ZZ19B
o8u7Buf7dLTwjwBxKAZj+YQGivgCwZV0aoqAko32ic3IEQNhCU1vEiAulGOtdr7e
0ePqZHPmTrBfoyOGeypb/iLv3pZiRY2A5mnHA1mNPXJfn9OkJQPrzc4qcEInhnUT
I9yR4u/Xm6vMbPeUNOarHzKPLCa7zBFqjOYoLElkxIe9AXMlGI5LKG/0GsmkTYRG
Rc+RM4nzXqhEDDhLybjcl65IBWYdgNkE+vOqb2Gl0JaVFqyCPS5zhHBI+1iWw/SU
AnloGTO9vFxEJiO2kfWqTDjqNXpuoeU/rpUkZ/A8x9hJSAXtTzgxw3ROcqJPmHGm
646XbFLBGf4VFDMzyHK/SlSkaCBqAgazYPKufhhLGTgeyPIFm86WjH7FuCeA98xT
HYYdHQ3LQWaZ4T2DdzdjCqoDbJ74WmxLIGDaP7LwMERqcjwqjoiNftqUfjJQ/Vr1
nPETGyLjUpmcRMLIg7GAQHEn7ssB1omwNtF7FfRU/vmV/TDpkVduQr6UcmCV0PK2
cKE3PiwBNYjuZEWuXZ03eaTZkDzHXaXBaSaO996H+nTDoUhd6a/05OrU1RUgiyA+
AaGX4mao8LbJfXUQtQgTcWOtxd63/8DUvjzuGZUGHFqNBWZQ4it36s2jyeh2U49B
cZhLyURAU57GHuVzU2TF5KuedDXlINSYkt0AaZUKqtQ/dQ3rCZaQ1tDqUWp0uiEH
hecnEV6wrm8eBmcZfcRDnuoKDyVNQq6jGYRD4TskpoR/UBxJq2JtU5iTpk/1KPPO
0fHSOAJkbnfmjiOwW3b1VKO8WCoFq6z3oy/Oy1LdnWIzsSRebeJmyMEV/UnPLfzP
k4v+L/PC2Pl7qV4z8RdTH8y9lbPFzKsLRwxXXrNNBcqQhdh5O2hICK/L0m6c93yM
lZURyN1QS9bYiplj3vM6HnXon3cOQ8LcYUMu3WjcC+e8ii3jVS/hqmbkzSwMc+Zl
MjwbkN25XRjN3ul/HXA/pk15lmooOsPKKJvPib3qrBtit/gceUy//YdRHiR6jUPk
2XMb/ihkPgXQQqBAStpyaamTXt3hvj5laW/jJ66E5iEKLW86hEwH5TLS2td8i2j2
JAyUoj67mg92Eh/6ziiY/A==
-----END ENCRYPTED PRIVATE KEY-----
Certificate:
    Data:
        Version: 3 (0x2)
        Serial Number: 1 (0x1)
        Signature Algorithm: sha1WithRSAEncryption
        Issuer: DC=org, DC=simple, O=Simple Inc, OU=Simple Signing CA, CN=Simple Signing CA
        Validity
            Not Before: Nov 22 00:34:17 2021 GMT
            Not After : Nov 22 00:34:17 2023 GMT
        Subject: DC=org, DC=simple, O=Simple Inc, CN=Fred Flintstone
        Subject Public Key Info:
            Public Key Algorithm: rsaEncryption
                RSA Public-Key: (2048 bit)
                Modulus:
                    00:b4:25:24:c8:ce:4f:2c:d7:50:a4:83:16:c3:a2:
                    63:8d:f8:a4:d2:e1:b0:13:15:63:0c:cd:b0:d4:77:
                    10:44:6e:47:91:f4:37:57:e8:48:68:7b:25:e3:95:
                    6e:cf:25:dc:a7:b6:c5:09:2d:1c:23:c5:f0:96:d2:
                    e6:85:49:83:e5:a1:a9:cf:43:26:ea:9a:1b:4c:aa:
                    5a:c9:f4:20:05:e1:cf:ae:e2:3b:fa:da:b8:16:ea:
                    6f:a6:78:e0:b2:3b:6f:04:e0:df:d7:73:07:a5:4f:
                    94:7c:8e:7f:0e:be:64:4a:93:b0:ca:b6:9c:3b:75:
                    e2:59:0b:20:a2:7e:3b:be:88:2c:3e:75:46:e7:21:
                    59:b2:44:39:2c:4e:95:89:71:76:53:5b:9f:c3:c9:
                    5f:2c:d4:f2:39:9b:4b:95:67:ec:66:b2:e9:5f:23:
                    2f:53:7b:d9:31:50:8e:32:07:18:e7:e4:a3:e7:43:
                    23:f1:45:45:6f:11:b7:3a:59:0a:48:78:6b:97:23:
                    8d:82:4b:c7:58:40:b2:dd:fb:03:bb:61:6e:54:3e:
                    2a:1a:a7:f0:be:01:57:57:eb:e3:41:e5:6a:b9:b3:
                    7d:87:e0:d6:72:0d:b1:02:a0:ad:72:03:fd:8b:eb:
                    b3:e2:d2:b6:77:dc:b1:d2:79:ef:49:f2:13:49:dc:
                    ea:63
                Exponent: 65537 (0x10001)
        X509v3 extensions:
            X509v3 Key Usage: critical
                Digital Signature, Key Encipherment
            X509v3 Basic Constraints: 
                CA:FALSE
            X509v3 Extended Key Usage: 
                E-mail Protection, TLS Web Client Authentication
            X509v3 Subject Key Identifier: 
                46:D2:C3:B3:23:9E:75:B0:71:67:1C:70:9B:42:99:74:50:55:77:8A
            X509v3 Authority Key Identifier: 
                keyid:71:50:C4:63:D7:47:0F:DB:B5:E0:37:13:3C:95:E9:FD:9A:7C:76:31

            X509v3 Subject Alternative Name: 
                email:fred@simple.org
    Signature Algorithm: sha1WithRSAEncryption
         a3:b3:04:14:c9:bf:b5:5f:b9:d2:d2:47:c6:9e:a8:5e:f6:84:
         05:9f:40:f0:48:0f:ec:b8:9b:30:5a:f5:56:51:f4:96:6d:53:
         79:dc:c4:7b:89:43:65:03:3a:34:f5:fc:41:78:81:a0:14:9a:
         05:89:e2:60:a3:80:c6:10:a3:10:40:5a:ee:5c:92:36:cc:21:
         80:49:f3:87:b2:d3:9f:56:b2:bb:57:0f:68:06:8a:6e:5b:11:
         86:92:ec:52:dc:1a:a2:65:ac:e1:17:7a:9f:fe:b6:78:37:cb:
         fb:64:d9:1c:cd:fc:44:88:b7:77:d8:72:68:f8:e1:45:61:e7:
         d4:f9:db:68:0b:58:68:fc:40:2a:b4:8c:2b:36:47:f6:53:c8:
         ae:6a:58:4b:5a:b4:f4:8f:77:2e:51:54:e5:9a:fa:15:28:2c:
         08:cf:0e:b3:82:a5:84:b8:a8:a6:01:fa:9d:a3:6e:88:dc:2f:
         20:7a:6f:f7:fa:01:f7:01:f7:e4:71:40:e4:fa:7e:9d:fa:6d:
         ec:83:b1:15:74:31:54:db:e9:cd:98:22:af:54:c0:61:2d:1b:
         73:eb:73:c8:13:d7:70:78:d8:a6:ad:c7:23:8e:c3:95:4f:83:
         fb:b4:2c:15:c9:f1:a3:67:68:65:a5:83:9e:90:a8:d8:12:b9:
         bb:fe:56:c7
-----BEGIN CERTIFICATE-----
MIID6zCCAtOgAwIBAgIBATANBgkqhkiG9w0BAQUFADB6MRMwEQYKCZImiZPyLGQB
GRYDb3JnMRYwFAYKCZImiZPyLGQBGRYGc2ltcGxlMRMwEQYDVQQKDApTaW1wbGUg
SW5jMRowGAYDVQQLDBFTaW1wbGUgU2lnbmluZyBDQTEaMBgGA1UEAwwRU2ltcGxl
IFNpZ25pbmcgQ0EwHhcNMjExMTIyMDAzNDE3WhcNMjMxMTIyMDAzNDE3WjBcMRMw
EQYKCZImiZPyLGQBGRYDb3JnMRYwFAYKCZImiZPyLGQBGRYGc2ltcGxlMRMwEQYD
VQQKDApTaW1wbGUgSW5jMRgwFgYDVQQDDA9GcmVkIEZsaW50c3RvbmUwggEiMA0G
CSqGSIb3DQEBAQUAA4IBDwAwggEKAoIBAQC0JSTIzk8s11CkgxbDomON+KTS4bAT
FWMMzbDUdxBEbkeR9DdX6EhoeyXjlW7PJdyntsUJLRwjxfCW0uaFSYPloanPQybq
mhtMqlrJ9CAF4c+u4jv62rgW6m+meOCyO28E4N/XcwelT5R8jn8OvmRKk7DKtpw7
deJZCyCifju+iCw+dUbnIVmyRDksTpWJcXZTW5/DyV8s1PI5m0uVZ+xmsulfIy9T
e9kxUI4yBxjn5KPnQyPxRUVvEbc6WQpIeGuXI42CS8dYQLLd+wO7YW5UPioap/C+
AVdX6+NB5Wq5s32H4NZyDbECoK1yA/2L67Pi0rZ33LHSee9J8hNJ3OpjAgMBAAGj
gZkwgZYwDgYDVR0PAQH/BAQDAgWgMAkGA1UdEwQCMAAwHQYDVR0lBBYwFAYIKwYB
BQUHAwQGCCsGAQUFBwMCMB0GA1UdDgQWBBRG0sOzI551sHFnHHCbQpl0UFV3ijAf
BgNVHSMEGDAWgBRxUMRj10cP27XgNxM8len9mnx2MTAaBgNVHREEEzARgQ9mcmVk
QHNpbXBsZS5vcmcwDQYJKoZIhvcNAQEFBQADggEBAKOzBBTJv7VfudLSR8aeqF72
hAWfQPBID+y4mzBa9VZR9JZtU3ncxHuJQ2UDOjT1/EF4gaAUmgWJ4mCjgMYQoxBA
Wu5ckjbMIYBJ84ey059WsrtXD2gGim5bEYaS7FLcGqJlrOEXep/+tng3y/tk2RzN
/ESIt3fYcmj44UVh59T522gLWGj8QCq0jCs2R/ZTyK5qWEtatPSPdy5RVOWa+hUo
LAjPDrOCpYS4qKYB+p2jbojcLyB6b/f6AfcB9+RxQOT6fp36beyDsRV0MVTb6c2Y
Iq9UwGEtG3Prc8gT13B42KatxyOOw5VPg/u0LBXJ8aNnaGWlg56QqNgSubv+Vsc=
-----END CERTIFICATE-----
